target datalayout = "e-m:e-p270:32:32-p271:32:32-p272:64:64-i64:64-i128:128-f80:128-n8:16:32:64-S128"
target triple = "x86_64-pc-linux-gnu"

%"class.tbb::detail::r1::concurrent_monitor" = type { %"class.tbb::detail::r1::concurrent_monitor_base.base", [4 x i8] }
%"class.tbb::detail::r1::concurrent_monitor_base.base" = type <{ %"class.tbb::detail::r1::concurrent_monitor_mutex", %"class.tbb::detail::r1::circular_doubly_linked_list_with_sentinel", %"struct.std::atomic.2" }>
%"class.tbb::detail::r1::concurrent_monitor_mutex" = type { %"struct.std::atomic", %"struct.std::atomic" }
%"struct.std::atomic" = type { %"struct.std::__atomic_base" }
%"struct.std::__atomic_base" = type { i32 }
%"class.tbb::detail::r1::circular_doubly_linked_list_with_sentinel" = type { %"struct.std::atomic.0", %"struct.tbb::detail::r1::circular_doubly_linked_list_with_sentinel::base_node" }
%"struct.std::atomic.0" = type { %"struct.std::__atomic_base.1" }
%"struct.std::__atomic_base.1" = type { i64 }
%"struct.tbb::detail::r1::circular_doubly_linked_list_with_sentinel::base_node" = type { ptr, ptr }
%"struct.std::atomic.2" = type { %"struct.std::__atomic_base.3" }
%"struct.std::__atomic_base.3" = type { i32 }

; Function Attrs: inlinehint mustprogress nounwind sspstrong uwtable
define internal void @_ZN3tbb6detail2d0L20atomic_fence_seq_cstEv() #9 {
  %1 = alloca i8, align 1
  call void @llvm.lifetime.start.p0(i64 1, ptr %1) #13
  store i8 0, ptr %1, align 1, !tbaa !95
  call void asm sideeffect "lock; notb $0", "=*m,*m,~{memory},~{dirflag},~{fpsr},~{flags}"(ptr elementtype(i8) %1, ptr elementtype(i8) %1) #13, !srcloc !96
  call void @llvm.lifetime.end.p0(i64 1, ptr %1) #13
  ret void
}

; Function Attrs: mustprogress sspstrong uwtable
define linkonce_odr void @_ZN3tbb6detail2r123concurrent_monitor_baseImE9abort_allEv(ptr noundef nonnull align 8 dereferenceable(36) %0) #0 comdat align 2 {
  %2 = alloca ptr, align 8
  store ptr %0, ptr %2, align 8, !tbaa !17
  %3 = load ptr, ptr %2, align 8
  call void @_ZN3tbb6detail2d0L20atomic_fence_seq_cstEv()
  call void @_ZN3tbb6detail2r123concurrent_monitor_baseImE17abort_all_relaxedEv(ptr noundef nonnull align 8 dereferenceable(36) %3)
  ret void
}

; Function Attrs: mustprogress sspstrong uwtable
define void @_ZN3tbb6detail2r128abort_bounded_queue_monitorsEPNS1_18concurrent_monitorE(ptr noundef %0) #0 {
  %2 = alloca ptr, align 8
  %3 = alloca ptr, align 8
  %4 = alloca ptr, align 8
  store ptr %0, ptr %2, align 8, !tbaa !10
  call void @llvm.lifetime.start.p0(i64 8, ptr %3) #13
  %5 = load ptr, ptr %2, align 8, !tbaa !10
  %6 = getelementptr inbounds nuw %"class.tbb::detail::r1::concurrent_monitor", ptr %5, i64 1
  store ptr %6, ptr %3, align 8, !tbaa !10
  call void @llvm.lifetime.start.p0(i64 8, ptr %4) #13
  %7 = load ptr, ptr %2, align 8, !tbaa !10
  %8 = getelementptr inbounds nuw %"class.tbb::detail::r1::concurrent_monitor", ptr %7, i64 0
  store ptr %8, ptr %4, align 8, !tbaa !10
  %9 = load ptr, ptr %3, align 8, !tbaa !10
  call void @_ZN3tbb6detail2r123concurrent_monitor_baseImE9abort_allEv(ptr noundef nonnull align 8 dereferenceable(36) %9)
  %10 = load ptr, ptr %4, align 8, !tbaa !10
  call void @_ZN3tbb6detail2r123concurrent_monitor_baseImE9abort_allEv(ptr noundef nonnull align 8 dereferenceable(36) %10)
  call void @llvm.lifetime.end.p0(i64 8, ptr %4) #13
  call void @llvm.lifetime.end.p0(i64 8, ptr %3) #13
  ret void
}