; Function Attrs: mustprogress sspstrong uwtable
define void @_ZN3tbb6detail2r128abort_bounded_queue_monitorsEPNS1_18concurrent_monitorE(ptr noundef %0) local_unnamed_addr #0 {
  %2 = alloca i8, align 1
  %3 = alloca i8, align 1
  %4 = getelementptr inbounds nuw i8, ptr %0, i64 40
  call void @llvm.lifetime.start.p0(i64 1, ptr nonnull %3) #9
  store i8 0, ptr %3, align 1, !tbaa !10
  call void asm sideeffect "lock; notb $0", "=*m,*m,~{memory},~{dirflag},~{fpsr},~{flags}"(ptr nonnull elementtype(i8) %3, ptr nonnull elementtype(i8) %3) #9, !srcloc !11
  call void @llvm.lifetime.end.p0(i64 1, ptr nonnull %3) #9
  call void @_ZN3tbb6detail2r123concurrent_monitor_baseImE17abort_all_relaxedEv(ptr noundef nonnull align 8 dereferenceable(36) %4)
  call void @llvm.lifetime.start.p0(i64 1, ptr nonnull %2) #9
  store i8 0, ptr %2, align 1, !tbaa !10
  call void asm sideeffect "lock; notb $0", "=*m,*m,~{memory},~{dirflag},~{fpsr},~{flags}"(ptr nonnull elementtype(i8) %2, ptr nonnull elementtype(i8) %2) #9, !srcloc !11
  call void @llvm.lifetime.end.p0(i64 1, ptr nonnull %2) #9
  call void @_ZN3tbb6detail2r123concurrent_monitor_baseImE17abort_all_relaxedEv(ptr noundef nonnull align 8 dereferenceable(36) %0)
  ret void
}